; ModuleID = '55/131.c'
source_filename = "55/131.c"
target datalayout = "e-m:e-p270:32:32-p271:32:32-p272:64:64-i64:64-f80:128-n8:16:32:64-S128"
target triple = "x86_64-pc-linux-gnu"

@.str = private unnamed_addr constant [7 x i8] c"%d%s%d\00", align 1
@.str.1 = private unnamed_addr constant [3 x i8] c"0\0A\00", align 1
@.str.2 = private unnamed_addr constant [3 x i8] c"%c\00", align 1
@.str.3 = private unnamed_addr constant [2 x i8] c"\0A\00", align 1

; Function Attrs: noinline nounwind uwtable
define dso_local void @main() #0 {
  %1 = alloca [32 x i8], align 16
  %2 = alloca [32 x i8], align 16
  %3 = alloca i64, align 8
  %4 = alloca i32, align 4
  %5 = alloca i32, align 4
  %6 = alloca i32, align 4
  %7 = alloca i32, align 4
  %8 = bitcast [32 x i8]* %1 to i8*
  call void @llvm.memset.p0i8.i64(i8* align 16 %8, i8 0, i64 32, i1 false)
  %9 = bitcast [32 x i8]* %2 to i8*
  call void @llvm.memset.p0i8.i64(i8* align 16 %9, i8 0, i64 32, i1 false)
  store i64 0, i64* %3, align 8
  %10 = getelementptr inbounds [32 x i8], [32 x i8]* %1, i64 0, i64 0
  %11 = call i32 (i8*, ...) @__isoc99_scanf(i8* getelementptr inbounds ([7 x i8], [7 x i8]* @.str, i64 0, i64 0), i32* %6, i8* %10, i32* %7)
  store i32 0, i32* %4, align 4
  br label %12

12:                                               ; preds = %102, %0
  %13 = load i32, i32* %4, align 4
  %14 = sext i32 %13 to i64
  %15 = getelementptr inbounds [32 x i8], [32 x i8]* %1, i64 0, i64 %14
  %16 = load i8, i8* %15, align 1
  %17 = sext i8 %16 to i32
  %18 = icmp ne i32 %17, 0
  br i1 %18, label %19, label %105

19:                                               ; preds = %12
  %20 = load i32, i32* %4, align 4
  %21 = sext i32 %20 to i64
  %22 = getelementptr inbounds [32 x i8], [32 x i8]* %1, i64 0, i64 %21
  %23 = load i8, i8* %22, align 1
  %24 = sext i8 %23 to i32
  %25 = icmp sge i32 %24, 48
  br i1 %25, label %26, label %45

26:                                               ; preds = %19
  %27 = load i32, i32* %4, align 4
  %28 = sext i32 %27 to i64
  %29 = getelementptr inbounds [32 x i8], [32 x i8]* %1, i64 0, i64 %28
  %30 = load i8, i8* %29, align 1
  %31 = sext i8 %30 to i32
  %32 = icmp sle i32 %31, 57
  br i1 %32, label %33, label %45

33:                                               ; preds = %26
  %34 = load i64, i64* %3, align 8
  %35 = load i32, i32* %6, align 4
  %36 = sext i32 %35 to i64
  %37 = mul nsw i64 %34, %36
  %38 = load i32, i32* %4, align 4
  %39 = sext i32 %38 to i64
  %40 = getelementptr inbounds [32 x i8], [32 x i8]* %1, i64 0, i64 %39
  %41 = load i8, i8* %40, align 1
  %42 = sext i8 %41 to i64
  %43 = add nsw i64 %37, %42
  %44 = sub nsw i64 %43, 48
  store i64 %44, i64* %3, align 8
  br label %101

45:                                               ; preds = %26, %19
  %46 = load i32, i32* %4, align 4
  %47 = sext i32 %46 to i64
  %48 = getelementptr inbounds [32 x i8], [32 x i8]* %1, i64 0, i64 %47
  %49 = load i8, i8* %48, align 1
  %50 = sext i8 %49 to i32
  %51 = icmp sge i32 %50, 65
  br i1 %51, label %52, label %72

52:                                               ; preds = %45
  %53 = load i32, i32* %4, align 4
  %54 = sext i32 %53 to i64
  %55 = getelementptr inbounds [32 x i8], [32 x i8]* %1, i64 0, i64 %54
  %56 = load i8, i8* %55, align 1
  %57 = sext i8 %56 to i32
  %58 = icmp sle i32 %57, 90
  br i1 %58, label %59, label %72

59:                                               ; preds = %52
  %60 = load i64, i64* %3, align 8
  %61 = load i32, i32* %6, align 4
  %62 = sext i32 %61 to i64
  %63 = mul nsw i64 %60, %62
  %64 = load i32, i32* %4, align 4
  %65 = sext i32 %64 to i64
  %66 = getelementptr inbounds [32 x i8], [32 x i8]* %1, i64 0, i64 %65
  %67 = load i8, i8* %66, align 1
  %68 = sext i8 %67 to i64
  %69 = add nsw i64 %63, %68
  %70 = sub nsw i64 %69, 65
  %71 = add nsw i64 %70, 10
  store i64 %71, i64* %3, align 8
  br label %100

72:                                               ; preds = %52, %45
  %73 = load i32, i32* %4, align 4
  %74 = sext i32 %73 to i64
  %75 = getelementptr inbounds [32 x i8], [32 x i8]* %1, i64 0, i64 %74
  %76 = load i8, i8* %75, align 1
  %77 = sext i8 %76 to i32
  %78 = icmp sge i32 %77, 97
  br i1 %78, label %79, label %99

79:                                               ; preds = %72
  %80 = load i32, i32* %4, align 4
  %81 = sext i32 %80 to i64
  %82 = getelementptr inbounds [32 x i8], [32 x i8]* %1, i64 0, i64 %81
  %83 = load i8, i8* %82, align 1
  %84 = sext i8 %83 to i32
  %85 = icmp sle i32 %84, 122
  br i1 %85, label %86, label %99

86:                                               ; preds = %79
  %87 = load i64, i64* %3, align 8
  %88 = load i32, i32* %6, align 4
  %89 = sext i32 %88 to i64
  %90 = mul nsw i64 %87, %89
  %91 = load i32, i32* %4, align 4
  %92 = sext i32 %91 to i64
  %93 = getelementptr inbounds [32 x i8], [32 x i8]* %1, i64 0, i64 %92
  %94 = load i8, i8* %93, align 1
  %95 = sext i8 %94 to i64
  %96 = add nsw i64 %90, %95
  %97 = sub nsw i64 %96, 97
  %98 = add nsw i64 %97, 10
  store i64 %98, i64* %3, align 8
  br label %99

99:                                               ; preds = %86, %79, %72
  br label %100

100:                                              ; preds = %99, %59
  br label %101

101:                                              ; preds = %100, %33
  br label %102

102:                                              ; preds = %101
  %103 = load i32, i32* %4, align 4
  %104 = add nsw i32 %103, 1
  store i32 %104, i32* %4, align 4
  br label %12

105:                                              ; preds = %12
  %106 = load i64, i64* %3, align 8
  %107 = icmp eq i64 %106, 0
  br i1 %107, label %108, label %110

108:                                              ; preds = %105
  %109 = call i32 (i8*, ...) @printf(i8* getelementptr inbounds ([3 x i8], [3 x i8]* @.str.1, i64 0, i64 0))
  br label %175

110:                                              ; preds = %105
  store i32 0, i32* %4, align 4
  br label %111

111:                                              ; preds = %145, %110
  %112 = load i32, i32* %4, align 4
  %113 = icmp sle i32 %112, 31
  %114 = zext i1 %113 to i32
  %115 = load i64, i64* %3, align 8
  %116 = icmp sgt i64 %115, 0
  br i1 %116, label %117, label %148

117:                                              ; preds = %111
  %118 = load i64, i64* %3, align 8
  %119 = load i32, i32* %7, align 4
  %120 = sext i32 %119 to i64
  %121 = srem i64 %118, %120
  %122 = trunc i64 %121 to i32
  store i32 %122, i32* %5, align 4
  %123 = load i32, i32* %5, align 4
  %124 = icmp slt i32 %123, 10
  br i1 %124, label %125, label %132

125:                                              ; preds = %117
  %126 = load i32, i32* %5, align 4
  %127 = add nsw i32 %126, 48
  %128 = trunc i32 %127 to i8
  %129 = load i32, i32* %4, align 4
  %130 = sext i32 %129 to i64
  %131 = getelementptr inbounds [32 x i8], [32 x i8]* %2, i64 0, i64 %130
  store i8 %128, i8* %131, align 1
  br label %140

132:                                              ; preds = %117
  %133 = load i32, i32* %5, align 4
  %134 = sub nsw i32 %133, 10
  %135 = add nsw i32 %134, 65
  %136 = trunc i32 %135 to i8
  %137 = load i32, i32* %4, align 4
  %138 = sext i32 %137 to i64
  %139 = getelementptr inbounds [32 x i8], [32 x i8]* %2, i64 0, i64 %138
  store i8 %136, i8* %139, align 1
  br label %140

140:                                              ; preds = %132, %125
  %141 = load i64, i64* %3, align 8
  %142 = load i32, i32* %7, align 4
  %143 = sext i32 %142 to i64
  %144 = sdiv i64 %141, %143
  store i64 %144, i64* %3, align 8
  br label %145

145:                                              ; preds = %140
  %146 = load i32, i32* %4, align 4
  %147 = add nsw i32 %146, 1
  store i32 %147, i32* %4, align 4
  br label %111

148:                                              ; preds = %111
  store i32 31, i32* %4, align 4
  br label %149

149:                                              ; preds = %156, %148
  %150 = load i32, i32* %4, align 4
  %151 = sext i32 %150 to i64
  %152 = getelementptr inbounds [32 x i8], [32 x i8]* %2, i64 0, i64 %151
  %153 = load i8, i8* %152, align 1
  %154 = sext i8 %153 to i32
  %155 = icmp eq i32 %154, 0
  br i1 %155, label %156, label %159

156:                                              ; preds = %149
  %157 = load i32, i32* %4, align 4
  %158 = add nsw i32 %157, -1
  store i32 %158, i32* %4, align 4
  br label %149

159:                                              ; preds = %149
  br label %160

160:                                              ; preds = %170, %159
  %161 = load i32, i32* %4, align 4
  %162 = icmp sge i32 %161, 0
  br i1 %162, label %163, label %173

163:                                              ; preds = %160
  %164 = load i32, i32* %4, align 4
  %165 = sext i32 %164 to i64
  %166 = getelementptr inbounds [32 x i8], [32 x i8]* %2, i64 0, i64 %165
  %167 = load i8, i8* %166, align 1
  %168 = sext i8 %167 to i32
  %169 = call i32 (i8*, ...) @printf(i8* getelementptr inbounds ([3 x i8], [3 x i8]* @.str.2, i64 0, i64 0), i32 %168)
  br label %170

170:                                              ; preds = %163
  %171 = load i32, i32* %4, align 4
  %172 = add nsw i32 %171, -1
  store i32 %172, i32* %4, align 4
  br label %160

173:                                              ; preds = %160
  %174 = call i32 (i8*, ...) @printf(i8* getelementptr inbounds ([2 x i8], [2 x i8]* @.str.3, i64 0, i64 0))
  br label %175

175:                                              ; preds = %173, %108
  ret void
}

; Function Attrs: argmemonly nounwind willreturn
declare void @llvm.memset.p0i8.i64(i8* nocapture writeonly, i8, i64, i1 immarg) #1

declare dso_local i32 @__isoc99_scanf(i8*, ...) #2

declare dso_local i32 @printf(i8*, ...) #2


!llvm.module.flags = !{!0}
!llvm.ident = !{!1}

!0 = !{i32 1, !"wchar_size", i32 4}
!1 = !{!"clang version 10.0.0-4ubuntu1 "}
